; Function Attrs: mustprogress nounwind uwtable
define void @_ZN6icu_7517UCharsTrieBuilderD2Ev(ptr noundef nonnull align 8 dereferenceable(112) %this) unnamed_addr #3 align 2 personality ptr @__gxx_personality_v0 {
entry:
  store ptr getelementptr inbounds ({ [22 x ptr] }, ptr @_ZTVN6icu_7517UCharsTrieBuilderE, i64 0, i32 0, i64 2), ptr %this, align 8
  %elements = getelementptr inbounds i8, ptr %this, i64 80
  %0 = load ptr, ptr %elements, align 8
  %isnull = icmp eq ptr %0, null
  br i1 %isnull, label %delete.end, label %delete.notnull

delete.notnull:                                   ; preds = %entry
  tail call void @_ZN6icu_757UMemorydaEPv(ptr noundef nonnull %0) #11
  br label %delete.end

delete.end:                                       ; preds = %delete.notnull, %entry
  %uchars = getelementptr inbounds i8, ptr %this, i64 96
  %1 = load ptr, ptr %uchars, align 8
  invoke void @uprv_free_75(ptr noundef %1)
          to label %invoke.cont unwind label %terminate.lpad

invoke.cont:                                      ; preds = %delete.end
  %strings = getelementptr inbounds i8, ptr %this, i64 16
  tail call void @_ZN6icu_7513UnicodeStringD1Ev(ptr noundef nonnull align 8 dereferenceable(64) %strings) #11
  tail call void @_ZN6icu_7517StringTrieBuilderD2Ev(ptr noundef nonnull align 8 dereferenceable(16) %this) #11
  ret void

terminate.lpad:                                   ; preds = %delete.end
  %2 = landingpad { ptr, i32 }
          catch ptr null
  %3 = extractvalue { ptr, i32 } %2, 0
  tail call void @__clang_call_terminate(ptr %3) #12
  unreachable
}